target datalayout = "e-m:e-p270:32:32-p271:32:32-p272:64:64-i64:64-i128:128-f80:128-n8:16:32:64-S128"
target triple = "x86_64-pc-linux-gnu"

%struct.termios = type { i32, i32, i32, i32, i8, [32 x i8], i32, i32 }
%struct.JSValue = type { %union.JSValueUnion, i64 }
%union.JSValueUnion = type { double }

@oldtty = internal global %struct.termios zeroinitializer, align 4

; Function Attrs: nounwind uwtable
define internal { i64, i64 } @js_os_ttySetRaw(ptr noundef %0, i64 %1, i64 %2, i32 noundef %3, ptr noundef %4) #0 {
  %6 = alloca %struct.JSValue, align 8
  %7 = alloca %struct.JSValue, align 8
  %8 = alloca ptr, align 8
  %9 = alloca i32, align 4
  %10 = alloca ptr, align 8
  %11 = alloca %struct.termios, align 4
  %12 = alloca i32, align 4
  %13 = getelementptr inbounds { i64, i64 }, ptr %7, i32 0, i32 0
  store i64 %1, ptr %13, align 8
  %14 = getelementptr inbounds { i64, i64 }, ptr %7, i32 0, i32 1
  store i64 %2, ptr %14, align 8
  store ptr %0, ptr %8, align 8
  store i32 %3, ptr %9, align 4
  store ptr %4, ptr %10, align 8
  %15 = load ptr, ptr %8, align 8
  %16 = load ptr, ptr %10, align 8
  %17 = getelementptr %struct.JSValue, ptr %16, i64 0
  %18 = getelementptr inbounds { i64, i64 }, ptr %17, i32 0, i32 0
  %19 = load i64, ptr %18, align 8
  %20 = getelementptr inbounds { i64, i64 }, ptr %17, i32 0, i32 1
  %21 = load i64, ptr %20, align 8
  %22 = call i32 @JS_ToInt32(ptr noundef %15, ptr noundef %12, i64 %19, i64 %21)
  %23 = icmp ne i32 %22, 0
  br i1 %23, label %24, label %27

24:                                               ; preds = %5
  %25 = getelementptr inbounds %struct.JSValue, ptr %6, i32 0, i32 0
  store i32 0, ptr %25, align 8
  %26 = getelementptr inbounds %struct.JSValue, ptr %6, i32 0, i32 1
  store i64 6, ptr %26, align 8
  br label %54

27:                                               ; preds = %5
  call void @llvm.memset.p0.i64(ptr align 4 %11, i8 0, i64 60, i1 false)
  %28 = load i32, ptr %12, align 4
  %29 = call i32 @tcgetattr(i32 noundef %28, ptr noundef %11) #12
  call void @llvm.memcpy.p0.p0.i64(ptr align 4 @oldtty, ptr align 4 %11, i64 60, i1 false)
  %30 = getelementptr inbounds %struct.termios, ptr %11, i32 0, i32 0
  %31 = load i32, ptr %30, align 4
  %32 = and i32 %31, -1516
  store i32 %32, ptr %30, align 4
  %33 = getelementptr inbounds %struct.termios, ptr %11, i32 0, i32 1
  %34 = load i32, ptr %33, align 4
  %35 = or i32 %34, 1
  store i32 %35, ptr %33, align 4
  %36 = getelementptr inbounds %struct.termios, ptr %11, i32 0, i32 3
  %37 = load i32, ptr %36, align 4
  %38 = and i32 %37, -32843
  store i32 %38, ptr %36, align 4
  %39 = getelementptr inbounds %struct.termios, ptr %11, i32 0, i32 2
  %40 = load i32, ptr %39, align 4
  %41 = and i32 %40, -305
  store i32 %41, ptr %39, align 4
  %42 = getelementptr inbounds %struct.termios, ptr %11, i32 0, i32 2
  %43 = load i32, ptr %42, align 4
  %44 = or i32 %43, 48
  store i32 %44, ptr %42, align 4
  %45 = getelementptr inbounds %struct.termios, ptr %11, i32 0, i32 5
  %46 = getelementptr [32 x i8], ptr %45, i64 0, i64 6
  store i8 1, ptr %46, align 1
  %47 = getelementptr inbounds %struct.termios, ptr %11, i32 0, i32 5
  %48 = getelementptr [32 x i8], ptr %47, i64 0, i64 5
  store i8 0, ptr %48, align 1
  %49 = load i32, ptr %12, align 4
  %50 = call i32 @tcsetattr(i32 noundef %49, i32 noundef 0, ptr noundef %11) #12
  %51 = call i32 @atexit(ptr noundef @term_exit) #12
  %52 = getelementptr inbounds %struct.JSValue, ptr %6, i32 0, i32 0
  store i32 0, ptr %52, align 8
  %53 = getelementptr inbounds %struct.JSValue, ptr %6, i32 0, i32 1
  store i64 3, ptr %53, align 8
  br label %54

54:                                               ; preds = %27, %24
  %55 = load { i64, i64 }, ptr %6, align 8
  ret { i64, i64 } %55
}