; Function Attrs: nounwind uwtable
define internal { i64, i64 } @js_os_ttySetRaw(ptr noundef %0, i64 %1, i64 %2, i32 %3, ptr nocapture noundef readonly %4) #0 {
  %6 = alloca %struct.termios, align 4
  %7 = alloca i32, align 4
  %8 = load i64, ptr %4, align 8
  %9 = getelementptr inbounds i8, ptr %4, i64 8
  %10 = load i64, ptr %9, align 8
  %11 = call i32 @JS_ToInt32(ptr noundef %0, ptr noundef nonnull %7, i64 %8, i64 %10) #29
  %.not = icmp eq i32 %11, 0
  br i1 %.not, label %12, label %32

12:                                               ; preds = %5
  call void @llvm.memset.p0.i64(ptr noundef nonnull align 4 dereferenceable(60) %6, i8 0, i64 60, i1 false)
  %13 = load i32, ptr %7, align 4
  %14 = call i32 @tcgetattr(i32 noundef %13, ptr noundef nonnull %6) #29
  call void @llvm.memcpy.p0.p0.i64(ptr noundef nonnull align 4 dereferenceable(60) @oldtty, ptr noundef nonnull align 4 dereferenceable(60) %6, i64 60, i1 false)
  %15 = load i32, ptr %6, align 4
  %16 = and i32 %15, -1516
  store i32 %16, ptr %6, align 4
  %17 = getelementptr inbounds i8, ptr %6, i64 4
  %18 = load i32, ptr %17, align 4
  %19 = or i32 %18, 1
  store i32 %19, ptr %17, align 4
  %20 = getelementptr inbounds i8, ptr %6, i64 12
  %21 = load i32, ptr %20, align 4
  %22 = and i32 %21, -32843
  store i32 %22, ptr %20, align 4
  %23 = getelementptr inbounds i8, ptr %6, i64 8
  %24 = load i32, ptr %23, align 4
  %25 = and i32 %24, -305
  %26 = or disjoint i32 %25, 48
  store i32 %26, ptr %23, align 4
  %27 = getelementptr inbounds i8, ptr %6, i64 23
  store i8 1, ptr %27, align 1
  %28 = getelementptr inbounds i8, ptr %6, i64 22
  store i8 0, ptr %28, align 2
  %29 = load i32, ptr %7, align 4
  %30 = call i32 @tcsetattr(i32 noundef %29, i32 noundef 0, ptr noundef nonnull %6) #29
  %31 = call i32 @atexit(ptr noundef nonnull @term_exit) #29
  br label %32

32:                                               ; preds = %5, %12
  %.sroa.3.sroa.1.0 = phi i64 [ 3, %12 ], [ 6, %5 ]
  %.fca.1.insert = insertvalue { i64, i64 } { i64 0, i64 poison }, i64 %.sroa.3.sroa.1.0, 1
  ret { i64, i64 } %.fca.1.insert
}